target datalayout = "e-m:e-p270:32:32-p271:32:32-p272:64:64-i64:64-i128:128-f80:128-n8:16:32:64-S128"
target triple = "x86_64-pc-linux-gnu"

%struct.BufFile = type { i32, ptr, i8, i8, i8, ptr, ptr, ptr, i32, i64, i32, i32, %union.PGAlignedBlock }
%union.PGAlignedBlock = type { double, [8184 x i8] }

@.str.1 = private unnamed_addr constant [10 x i8] c"buffile.c\00", align 1
@.str.3 = private unnamed_addr constant [70 x i8] c"could not determine size of temporary file \22%s\22 from BufFile \22%s\22: %m\00", align 1
@__func__.BufFileSeek = private unnamed_addr constant [12 x i8] c"BufFileSeek\00", align 1
@.str.4 = private unnamed_addr constant [19 x i8] c"invalid whence: %d\00", align 1

; Function Attrs: nounwind uwtable
define internal void @BufFileFlush(ptr noundef %0) #0 {
  %2 = alloca ptr, align 8
  store ptr %0, ptr %2, align 8
  %3 = load ptr, ptr %2, align 8
  %4 = getelementptr inbounds nuw %struct.BufFile, ptr %3, i32 0, i32 3
  %5 = load i8, ptr %4, align 1, !range !4, !noundef !5
  %6 = trunc i8 %5 to i1
  br i1 %6, label %7, label %9

7:                                                ; preds = %1
  %8 = load ptr, ptr %2, align 8
  call void @BufFileDumpBuffer(ptr noundef %8)
  br label %9

9:                                                ; preds = %7, %1
  ret void
}

; Function Attrs: nounwind uwtable
define dso_local i32 @BufFileSeek(ptr noundef %0, i32 noundef %1, i64 noundef %2, i32 noundef %3) #0 {
  %5 = alloca i32, align 4
  %6 = alloca ptr, align 8
  %7 = alloca i32, align 4
  %8 = alloca i64, align 8
  %9 = alloca i32, align 4
  %10 = alloca i32, align 4
  %11 = alloca i64, align 8
  %12 = alloca i32, align 4
  store ptr %0, ptr %6, align 8
  store i32 %1, ptr %7, align 4
  store i64 %2, ptr %8, align 8
  store i32 %3, ptr %9, align 4
  call void @llvm.lifetime.start.p0(i64 4, ptr %10) #8
  call void @llvm.lifetime.start.p0(i64 8, ptr %11) #8
  %13 = load i32, ptr %9, align 4
  switch i32 %13, label %80 [
    i32 0, label %14
    i32 1, label %21
    i32 2, label %35
  ]

14:                                               ; preds = %4
  %15 = load i32, ptr %7, align 4
  %16 = icmp slt i32 %15, 0
  br i1 %16, label %17, label %18

17:                                               ; preds = %14
  store i32 -1, ptr %5, align 4
  store i32 1, ptr %12, align 4
  br label %182

18:                                               ; preds = %14
  %19 = load i32, ptr %7, align 4
  store i32 %19, ptr %10, align 4
  %20 = load i64, ptr %8, align 8
  store i64 %20, ptr %11, align 8
  br label %92

21:                                               ; preds = %4
  %22 = load ptr, ptr %6, align 8
  %23 = getelementptr inbounds nuw %struct.BufFile, ptr %22, i32 0, i32 8
  %24 = load i32, ptr %23, align 8
  store i32 %24, ptr %10, align 4
  %25 = load ptr, ptr %6, align 8
  %26 = getelementptr inbounds nuw %struct.BufFile, ptr %25, i32 0, i32 9
  %27 = load i64, ptr %26, align 8
  %28 = load ptr, ptr %6, align 8
  %29 = getelementptr inbounds nuw %struct.BufFile, ptr %28, i32 0, i32 10
  %30 = load i32, ptr %29, align 8
  %31 = sext i32 %30 to i64
  %32 = add i64 %27, %31
  %33 = load i64, ptr %8, align 8
  %34 = add i64 %32, %33
  store i64 %34, ptr %11, align 8
  br label %92

35:                                               ; preds = %4
  %36 = load ptr, ptr %6, align 8
  %37 = getelementptr inbounds nuw %struct.BufFile, ptr %36, i32 0, i32 0
  %38 = load i32, ptr %37, align 8
  %39 = sub i32 %38, 1
  store i32 %39, ptr %10, align 4
  %40 = load ptr, ptr %6, align 8
  %41 = getelementptr inbounds nuw %struct.BufFile, ptr %40, i32 0, i32 1
  %42 = load ptr, ptr %41, align 8
  %43 = load ptr, ptr %6, align 8
  %44 = getelementptr inbounds nuw %struct.BufFile, ptr %43, i32 0, i32 0
  %45 = load i32, ptr %44, align 8
  %46 = sub i32 %45, 1
  %47 = sext i32 %46 to i64
  %48 = getelementptr inbounds i32, ptr %42, i64 %47
  %49 = load i32, ptr %48, align 4
  %50 = call i64 @FileSize(i32 noundef %49)
  store i64 %50, ptr %11, align 8
  %51 = load i64, ptr %11, align 8
  %52 = icmp slt i64 %51, 0
  br i1 %52, label %53, label %79

53:                                               ; preds = %35
  br label %54

54:                                               ; preds = %53
  br i1 true, label %55, label %57

55:                                               ; preds = %54
  %56 = call zeroext i1 @errstart_cold(i32 noundef 21, ptr noundef null) #9
  br i1 %56, label %59, label %76

57:                                               ; preds = %54
  %58 = call zeroext i1 @errstart(i32 noundef 21, ptr noundef null)
  br i1 %58, label %59, label %76

59:                                               ; preds = %57, %55
  %60 = call i32 @errcode_for_file_access()
  %61 = load ptr, ptr %6, align 8
  %62 = getelementptr inbounds nuw %struct.BufFile, ptr %61, i32 0, i32 1
  %63 = load ptr, ptr %62, align 8
  %64 = load ptr, ptr %6, align 8
  %65 = getelementptr inbounds nuw %struct.BufFile, ptr %64, i32 0, i32 0
  %66 = load i32, ptr %65, align 8
  %67 = sub i32 %66, 1
  %68 = sext i32 %67 to i64
  %69 = getelementptr inbounds i32, ptr %63, i64 %68
  %70 = load i32, ptr %69, align 4
  %71 = call ptr @FilePathName(i32 noundef %70)
  %72 = load ptr, ptr %6, align 8
  %73 = getelementptr inbounds nuw %struct.BufFile, ptr %72, i32 0, i32 6
  %74 = load ptr, ptr %73, align 8
  %75 = call i32 (ptr, ...) @errmsg(ptr noundef @.str.3, ptr noundef %71, ptr noundef %74)
  call void @errfinish(ptr noundef @.str.1, i32 noundef 776, ptr noundef @__func__.BufFileSeek)
  br label %76

76:                                               ; preds = %59, %57, %55
  unreachable

77:                                               ; No predecessors!
  br label %78

78:                                               ; preds = %77
  br label %79

79:                                               ; preds = %78, %35
  br label %92

80:                                               ; preds = %4
  br label %81

81:                                               ; preds = %80
  br i1 true, label %82, label %84

82:                                               ; preds = %81
  %83 = call zeroext i1 @errstart_cold(i32 noundef 21, ptr noundef null) #9
  br i1 %83, label %86, label %89

84:                                               ; preds = %81
  %85 = call zeroext i1 @errstart(i32 noundef 21, ptr noundef null)
  br i1 %85, label %86, label %89

86:                                               ; preds = %84, %82
  %87 = load i32, ptr %9, align 4
  %88 = call i32 (ptr, ...) @errmsg_internal(ptr noundef @.str.4, i32 noundef %87)
  call void @errfinish(ptr noundef @.str.1, i32 noundef 779, ptr noundef @__func__.BufFileSeek)
  br label %89

89:                                               ; preds = %86, %84, %82
  unreachable

90:                                               ; No predecessors!
  br label %91

91:                                               ; preds = %90
  store i32 -1, ptr %5, align 4
  store i32 1, ptr %12, align 4
  br label %182

92:                                               ; preds = %79, %21, %18
  br label %93

93:                                               ; preds = %101, %92
  %94 = load i64, ptr %11, align 8
  %95 = icmp slt i64 %94, 0
  br i1 %95, label %96, label %104

96:                                               ; preds = %93
  %97 = load i32, ptr %10, align 4
  %98 = add i32 %97, -1
  store i32 %98, ptr %10, align 4
  %99 = icmp slt i32 %98, 0
  br i1 %99, label %100, label %101

100:                                              ; preds = %96
  store i32 -1, ptr %5, align 4
  store i32 1, ptr %12, align 4
  br label %182

101:                                              ; preds = %96
  %102 = load i64, ptr %11, align 8
  %103 = add i64 %102, 1073741824
  store i64 %103, ptr %11, align 8
  br label %93, !llvm.loop !12

104:                                              ; preds = %93
  %105 = load i32, ptr %10, align 4
  %106 = load ptr, ptr %6, align 8
  %107 = getelementptr inbounds nuw %struct.BufFile, ptr %106, i32 0, i32 8
  %108 = load i32, ptr %107, align 8
  %109 = icmp eq i32 %105, %108
  br i1 %109, label %110, label %136

110:                                              ; preds = %104
  %111 = load i64, ptr %11, align 8
  %112 = load ptr, ptr %6, align 8
  %113 = getelementptr inbounds nuw %struct.BufFile, ptr %112, i32 0, i32 9
  %114 = load i64, ptr %113, align 8
  %115 = icmp sge i64 %111, %114
  br i1 %115, label %116, label %136

116:                                              ; preds = %110
  %117 = load i64, ptr %11, align 8
  %118 = load ptr, ptr %6, align 8
  %119 = getelementptr inbounds nuw %struct.BufFile, ptr %118, i32 0, i32 9
  %120 = load i64, ptr %119, align 8
  %121 = load ptr, ptr %6, align 8
  %122 = getelementptr inbounds nuw %struct.BufFile, ptr %121, i32 0, i32 11
  %123 = load i32, ptr %122, align 4
  %124 = sext i32 %123 to i64
  %125 = add i64 %120, %124
  %126 = icmp sle i64 %117, %125
  br i1 %126, label %127, label %136

127:                                              ; preds = %116
  %128 = load i64, ptr %11, align 8
  %129 = load ptr, ptr %6, align 8
  %130 = getelementptr inbounds nuw %struct.BufFile, ptr %129, i32 0, i32 9
  %131 = load i64, ptr %130, align 8
  %132 = sub i64 %128, %131
  %133 = trunc i64 %132 to i32
  %134 = load ptr, ptr %6, align 8
  %135 = getelementptr inbounds nuw %struct.BufFile, ptr %134, i32 0, i32 10
  store i32 %133, ptr %135, align 8
  store i32 0, ptr %5, align 4
  store i32 1, ptr %12, align 4
  br label %182

136:                                              ; preds = %116, %110, %104
  %137 = load ptr, ptr %6, align 8
  call void @BufFileFlush(ptr noundef %137)
  %138 = load i32, ptr %10, align 4
  %139 = load ptr, ptr %6, align 8
  %140 = getelementptr inbounds nuw %struct.BufFile, ptr %139, i32 0, i32 0
  %141 = load i32, ptr %140, align 8
  %142 = icmp eq i32 %138, %141
  br i1 %142, label %143, label %149

143:                                              ; preds = %136
  %144 = load i64, ptr %11, align 8
  %145 = icmp eq i64 %144, 0
  br i1 %145, label %146, label %149

146:                                              ; preds = %143
  %147 = load i32, ptr %10, align 4
  %148 = add i32 %147, -1
  store i32 %148, ptr %10, align 4
  store i64 1073741824, ptr %11, align 8
  br label %149

149:                                              ; preds = %146, %143, %136
  br label %150

150:                                              ; preds = %161, %149
  %151 = load i64, ptr %11, align 8
  %152 = icmp sgt i64 %151, 1073741824
  br i1 %152, label %153, label %164

153:                                              ; preds = %150
  %154 = load i32, ptr %10, align 4
  %155 = add i32 %154, 1
  store i32 %155, ptr %10, align 4
  %156 = load ptr, ptr %6, align 8
  %157 = getelementptr inbounds nuw %struct.BufFile, ptr %156, i32 0, i32 0
  %158 = load i32, ptr %157, align 8
  %159 = icmp sge i32 %155, %158
  br i1 %159, label %160, label %161

160:                                              ; preds = %153
  store i32 -1, ptr %5, align 4
  store i32 1, ptr %12, align 4
  br label %182

161:                                              ; preds = %153
  %162 = load i64, ptr %11, align 8
  %163 = sub i64 %162, 1073741824
  store i64 %163, ptr %11, align 8
  br label %150, !llvm.loop !13

164:                                              ; preds = %150
  %165 = load i32, ptr %10, align 4
  %166 = load ptr, ptr %6, align 8
  %167 = getelementptr inbounds nuw %struct.BufFile, ptr %166, i32 0, i32 0
  %168 = load i32, ptr %167, align 8
  %169 = icmp sge i32 %165, %168
  br i1 %169, label %170, label %171

170:                                              ; preds = %164
  store i32 -1, ptr %5, align 4
  store i32 1, ptr %12, align 4
  br label %182

171:                                              ; preds = %164
  %172 = load i32, ptr %10, align 4
  %173 = load ptr, ptr %6, align 8
  %174 = getelementptr inbounds nuw %struct.BufFile, ptr %173, i32 0, i32 8
  store i32 %172, ptr %174, align 8
  %175 = load i64, ptr %11, align 8
  %176 = load ptr, ptr %6, align 8
  %177 = getelementptr inbounds nuw %struct.BufFile, ptr %176, i32 0, i32 9
  store i64 %175, ptr %177, align 8
  %178 = load ptr, ptr %6, align 8
  %179 = getelementptr inbounds nuw %struct.BufFile, ptr %178, i32 0, i32 10
  store i32 0, ptr %179, align 8
  %180 = load ptr, ptr %6, align 8
  %181 = getelementptr inbounds nuw %struct.BufFile, ptr %180, i32 0, i32 11
  store i32 0, ptr %181, align 4
  store i32 0, ptr %5, align 4
  store i32 1, ptr %12, align 4
  br label %182

182:                                              ; preds = %171, %170, %160, %127, %100, %91, %17
  call void @llvm.lifetime.end.p0(i64 8, ptr %11) #8
  call void @llvm.lifetime.end.p0(i64 4, ptr %10) #8
  %183 = load i32, ptr %5, align 4
  ret i32 %183
}