; Function Attrs: nounwind uwtable
define dso_local range(i32 -1, 1) i32 @BufFileSeek(ptr noundef %0, i32 noundef %1, i64 noundef %2, i32 noundef %3) local_unnamed_addr #0 {
  switch i32 %3, label %40 [
    i32 0, label %5
    i32 1, label %7
    i32 2, label %17
  ]

5:                                                ; preds = %4
  %6 = icmp slt i32 %1, 0
  br i1 %6, label %.loopexit, label %43

7:                                                ; preds = %4
  %8 = getelementptr inbounds nuw i8, ptr %0, i64 48
  %9 = load i32, ptr %8, align 8
  %10 = getelementptr inbounds nuw i8, ptr %0, i64 56
  %11 = load i64, ptr %10, align 8
  %12 = getelementptr inbounds nuw i8, ptr %0, i64 64
  %13 = load i32, ptr %12, align 8
  %14 = sext i32 %13 to i64
  %15 = add i64 %11, %2
  %16 = add i64 %15, %14
  br label %43

17:                                               ; preds = %4
  %18 = load i32, ptr %0, align 8
  %19 = add i32 %18, -1
  %20 = getelementptr inbounds nuw i8, ptr %0, i64 8
  %21 = load ptr, ptr %20, align 8
  %22 = sext i32 %19 to i64
  %23 = getelementptr inbounds i32, ptr %21, i64 %22
  %24 = load i32, ptr %23, align 4
  %25 = tail call i64 @FileSize(i32 noundef %24) #10
  %26 = icmp slt i64 %25, 0
  br i1 %26, label %27, label %._crit_edge

27:                                               ; preds = %17
  %28 = tail call zeroext i1 @errstart_cold(i32 noundef 21, ptr noundef null) #11
  tail call void @llvm.assume(i1 %28)
  %29 = tail call i32 @errcode_for_file_access() #10
  %30 = load ptr, ptr %20, align 8
  %31 = load i32, ptr %0, align 8
  %32 = add i32 %31, -1
  %33 = sext i32 %32 to i64
  %34 = getelementptr inbounds i32, ptr %30, i64 %33
  %35 = load i32, ptr %34, align 4
  %36 = tail call ptr @FilePathName(i32 noundef %35) #10
  %37 = getelementptr inbounds nuw i8, ptr %0, i64 32
  %38 = load ptr, ptr %37, align 8
  %39 = tail call i32 (ptr, ...) @errmsg(ptr noundef nonnull @.str.3, ptr noundef %36, ptr noundef %38) #10
  tail call void @errfinish(ptr noundef nonnull @.str.1, i32 noundef 776, ptr noundef nonnull @__func__.BufFileSeek) #10
  unreachable

40:                                               ; preds = %4
  %41 = tail call zeroext i1 @errstart_cold(i32 noundef 21, ptr noundef null) #11
  tail call void @llvm.assume(i1 %41)
  %42 = tail call i32 (ptr, ...) @errmsg_internal(ptr noundef nonnull @.str.4, i32 noundef %3) #10
  tail call void @errfinish(ptr noundef nonnull @.str.1, i32 noundef 779, ptr noundef nonnull @__func__.BufFileSeek) #10
  unreachable

43:                                               ; preds = %5, %7
  %.047 = phi i32 [ %9, %7 ], [ %1, %5 ]
  %.0 = phi i64 [ %16, %7 ], [ %2, %5 ]
  %44 = icmp slt i64 %.0, 0
  br i1 %44, label %.lr.ph.preheader, label %._crit_edge

.lr.ph.preheader:                                 ; preds = %43
  %45 = add i32 %.047, -1
  %smin = tail call i32 @llvm.smin.i32(i32 %45, i32 -1)
  %46 = sub i32 %45, %smin
  %47 = tail call i64 @llvm.umax.i64(i64 %.0, i64 -1073741824)
  %48 = add nsw i64 %47, 1073741823
  %49 = sub i64 %48, %.0
  %50 = lshr i64 %49, 30
  %51 = zext i32 %46 to i64
  %.not83 = icmp samesign ult i64 %50, %51
  br i1 %.not83, label %.lr.ph.preheader.split, label %.loopexit

.lr.ph.preheader.split:                           ; preds = %.lr.ph.preheader
  %52 = and i64 %49, -1073741824
  %53 = add i64 %.0, %52
  %54 = add i64 %53, 1073741824
  %55 = trunc i64 %50 to i32
  %56 = sub i32 %45, %55
  br label %._crit_edge

._crit_edge:                                      ; preds = %17, %.lr.ph.preheader.split, %43
  %.148.lcssa = phi i32 [ %.047, %43 ], [ %56, %.lr.ph.preheader.split ], [ %19, %17 ]
  %.1.lcssa = phi i64 [ %.0, %43 ], [ %54, %.lr.ph.preheader.split ], [ %25, %17 ]
  %57 = getelementptr inbounds nuw i8, ptr %0, i64 48
  %58 = load i32, ptr %57, align 8
  %59 = icmp eq i32 %.148.lcssa, %58
  br i1 %59, label %60, label %72

60:                                               ; preds = %._crit_edge
  %61 = getelementptr inbounds nuw i8, ptr %0, i64 56
  %62 = load i64, ptr %61, align 8
  %.not = icmp slt i64 %.1.lcssa, %62
  br i1 %.not, label %72, label %63

63:                                               ; preds = %60
  %64 = getelementptr inbounds nuw i8, ptr %0, i64 68
  %65 = load i32, ptr %64, align 4
  %66 = sext i32 %65 to i64
  %67 = add i64 %62, %66
  %.not57 = icmp sgt i64 %.1.lcssa, %67
  br i1 %.not57, label %72, label %68

68:                                               ; preds = %63
  %69 = sub i64 %.1.lcssa, %62
  %70 = trunc i64 %69 to i32
  %71 = getelementptr inbounds nuw i8, ptr %0, i64 64
  store i32 %70, ptr %71, align 8
  br label %.loopexit

72:                                               ; preds = %63, %60, %._crit_edge
  %73 = getelementptr inbounds nuw i8, ptr %0, i64 17
  %74 = load i8, ptr %73, align 1, !range !5, !noundef !6
  %75 = trunc nuw i8 %74 to i1
  br i1 %75, label %76, label %BufFileFlush.exit

76:                                               ; preds = %72
  tail call fastcc void @BufFileDumpBuffer(ptr noundef nonnull %0)
  br label %BufFileFlush.exit

BufFileFlush.exit:                                ; preds = %72, %76
  %77 = load i32, ptr %0, align 8
  %78 = icmp eq i32 %.148.lcssa, %77
  %79 = icmp eq i64 %.1.lcssa, 0
  %or.cond = and i1 %79, %78
  %80 = sext i1 %or.cond to i32
  %spec.select = add i32 %.148.lcssa, %80
  %spec.select61 = select i1 %or.cond, i64 1073741824, i64 %.1.lcssa
  %81 = icmp sgt i64 %spec.select61, 1073741824
  br i1 %81, label %.lr.ph72.preheader, label %select.unfold._crit_edge

.lr.ph72.preheader:                               ; preds = %BufFileFlush.exit
  %82 = add i32 %spec.select, 1
  %smax80 = tail call i32 @llvm.smax.i32(i32 %77, i32 %82)
  %83 = xor i32 %.148.lcssa, -1
  %84 = add i32 %smax80, %83
  %85 = sub i32 %84, %80
  %86 = tail call i64 @llvm.usub.sat.i64(i64 %spec.select61, i64 2147483648)
  %87 = add nuw i64 %86, 1073741823
  %88 = lshr i64 %87, 30
  %89 = zext i32 %85 to i64
  %.not84.not = icmp samesign ult i64 %88, %89
  br i1 %.not84.not, label %.lr.ph72.preheader.split, label %.loopexit

.lr.ph72.preheader.split:                         ; preds = %.lr.ph72.preheader
  %90 = and i64 %87, -1073741824
  %91 = trunc i64 %88 to i32
  %92 = add i32 %spec.select, %91
  %93 = add nsw i64 %spec.select61, -1073741824
  %94 = sub nsw i64 %93, %90
  %95 = add i32 %92, 1
  br label %select.unfold._crit_edge

select.unfold._crit_edge:                         ; preds = %.lr.ph72.preheader.split, %BufFileFlush.exit
  %.350.lcssa = phi i32 [ %spec.select, %BufFileFlush.exit ], [ %95, %.lr.ph72.preheader.split ]
  %.3.lcssa = phi i64 [ %spec.select61, %BufFileFlush.exit ], [ %94, %.lr.ph72.preheader.split ]
  %.not58 = icmp slt i32 %.350.lcssa, %77
  br i1 %.not58, label %96, label %.loopexit

96:                                               ; preds = %select.unfold._crit_edge
  store i32 %.350.lcssa, ptr %57, align 8
  %97 = getelementptr inbounds nuw i8, ptr %0, i64 56
  store i64 %.3.lcssa, ptr %97, align 8
  %98 = getelementptr inbounds nuw i8, ptr %0, i64 64
  store i32 0, ptr %98, align 8
  %99 = getelementptr inbounds nuw i8, ptr %0, i64 68
  store i32 0, ptr %99, align 4
  br label %.loopexit

.loopexit:                                        ; preds = %.lr.ph.preheader, %.lr.ph72.preheader, %select.unfold._crit_edge, %5, %96, %68
  %.051 = phi i32 [ 0, %68 ], [ 0, %96 ], [ -1, %5 ], [ -1, %select.unfold._crit_edge ], [ -1, %.lr.ph72.preheader ], [ -1, %.lr.ph.preheader ]
  ret i32 %.051
}